target datalayout = "e-m:e-p270:32:32-p271:32:32-p272:64:64-i64:64-i128:128-f80:128-n8:16:32:64-S128"
target triple = "x86_64-pc-linux-gnu"

%struct.sockaddr_un = type { i16, [108 x i8] }

; Function Attrs: nounwind uwtable
define internal i32 @uv__pipe_getsockpeername(ptr noundef %0, ptr noundef %1, ptr noundef %2, ptr noundef %3) #0 {
  %5 = alloca i32, align 4
  %6 = alloca ptr, align 8
  %7 = alloca ptr, align 8
  %8 = alloca ptr, align 8
  %9 = alloca ptr, align 8
  %10 = alloca %struct.sockaddr_un, align 2
  %11 = alloca i32, align 4
  %12 = alloca i32, align 4
  %13 = alloca i32, align 4
  store ptr %0, ptr %6, align 8, !tbaa !9
  store ptr %1, ptr %7, align 8, !tbaa !31
  store ptr %2, ptr %8, align 8, !tbaa !24
  store ptr %3, ptr %9, align 8, !tbaa !45
  call void @llvm.lifetime.start.p0(i64 110, ptr %10) #8
  call void @llvm.lifetime.start.p0(i64 4, ptr %11) #8
  call void @llvm.lifetime.start.p0(i64 4, ptr %12) #8
  store i32 110, ptr %11, align 4, !tbaa !11
  %14 = load i32, ptr %11, align 4, !tbaa !11
  %15 = zext i32 %14 to i64
  call void @llvm.memset.p0.i64(ptr align 2 %10, i8 0, i64 %15, i1 false)
  %16 = load ptr, ptr %6, align 8, !tbaa !9
  %17 = load ptr, ptr %7, align 8, !tbaa !31
  %18 = call i32 @uv__getsockpeername(ptr noundef %16, ptr noundef %17, ptr noundef %10, ptr noundef %11)
  store i32 %18, ptr %12, align 4, !tbaa !11
  %19 = load i32, ptr %12, align 4, !tbaa !11
  %20 = icmp slt i32 %19, 0
  br i1 %20, label %21, label %24

21:                                               ; preds = %4
  %22 = load ptr, ptr %9, align 8, !tbaa !45
  store i64 0, ptr %22, align 8, !tbaa !47
  %23 = load i32, ptr %12, align 4, !tbaa !11
  store i32 %23, ptr %5, align 4
  store i32 1, ptr %13, align 4
  br label %71

24:                                               ; preds = %4
  %25 = getelementptr inbounds nuw %struct.sockaddr_un, ptr %10, i32 0, i32 1
  %26 = getelementptr inbounds [108 x i8], ptr %25, i64 0, i64 0
  %27 = load i8, ptr %26, align 2, !tbaa !30
  %28 = sext i8 %27 to i32
  %29 = icmp eq i32 %28, 0
  br i1 %29, label %30, label %35

30:                                               ; preds = %24
  %31 = load i32, ptr %11, align 4, !tbaa !11
  %32 = zext i32 %31 to i64
  %33 = sub i64 %32, 2
  %34 = trunc i64 %33 to i32
  store i32 %34, ptr %11, align 4, !tbaa !11
  br label %40

35:                                               ; preds = %24
  %36 = getelementptr inbounds nuw %struct.sockaddr_un, ptr %10, i32 0, i32 1
  %37 = getelementptr inbounds [108 x i8], ptr %36, i64 0, i64 0
  %38 = call i64 @strlen(ptr noundef %37) #10
  %39 = trunc i64 %38 to i32
  store i32 %39, ptr %11, align 4, !tbaa !11
  br label %40

40:                                               ; preds = %35, %30
  %41 = load i32, ptr %11, align 4, !tbaa !11
  %42 = zext i32 %41 to i64
  %43 = load ptr, ptr %9, align 8, !tbaa !45
  %44 = load i64, ptr %43, align 8, !tbaa !47
  %45 = icmp uge i64 %42, %44
  br i1 %45, label %46, label %51

46:                                               ; preds = %40
  %47 = load i32, ptr %11, align 4, !tbaa !11
  %48 = add i32 %47, 1
  %49 = zext i32 %48 to i64
  %50 = load ptr, ptr %9, align 8, !tbaa !45
  store i64 %49, ptr %50, align 8, !tbaa !47
  store i32 -105, ptr %5, align 4
  store i32 1, ptr %13, align 4
  br label %71

51:                                               ; preds = %40
  %52 = load ptr, ptr %8, align 8, !tbaa !24
  %53 = getelementptr inbounds nuw %struct.sockaddr_un, ptr %10, i32 0, i32 1
  %54 = getelementptr inbounds [108 x i8], ptr %53, i64 0, i64 0
  %55 = load i32, ptr %11, align 4, !tbaa !11
  %56 = zext i32 %55 to i64
  call void @llvm.memcpy.p0.p0.i64(ptr align 1 %52, ptr align 2 %54, i64 %56, i1 false)
  %57 = load i32, ptr %11, align 4, !tbaa !11
  %58 = zext i32 %57 to i64
  %59 = load ptr, ptr %9, align 8, !tbaa !45
  store i64 %58, ptr %59, align 8, !tbaa !47
  %60 = load ptr, ptr %8, align 8, !tbaa !24
  %61 = getelementptr inbounds i8, ptr %60, i64 0
  %62 = load i8, ptr %61, align 1, !tbaa !30
  %63 = sext i8 %62 to i32
  %64 = icmp ne i32 %63, 0
  br i1 %64, label %65, label %70

65:                                               ; preds = %51
  %66 = load ptr, ptr %8, align 8, !tbaa !24
  %67 = load i32, ptr %11, align 4, !tbaa !11
  %68 = zext i32 %67 to i64
  %69 = getelementptr inbounds nuw i8, ptr %66, i64 %68
  store i8 0, ptr %69, align 1, !tbaa !30
  br label %70

70:                                               ; preds = %65, %51
  store i32 0, ptr %5, align 4
  store i32 1, ptr %13, align 4
  br label %71

71:                                               ; preds = %70, %46, %21
  call void @llvm.lifetime.end.p0(i64 4, ptr %12) #8
  call void @llvm.lifetime.end.p0(i64 4, ptr %11) #8
  call void @llvm.lifetime.end.p0(i64 110, ptr %10) #8
  %72 = load i32, ptr %5, align 4
  ret i32 %72
}

; Function Attrs: nounwind uwtable
define dso_local i32 @uv_pipe_getpeername(ptr noundef %0, ptr noundef %1, ptr noundef %2) #0 {
  %4 = alloca ptr, align 8
  %5 = alloca ptr, align 8
  %6 = alloca ptr, align 8
  store ptr %0, ptr %4, align 8, !tbaa !9
  store ptr %1, ptr %5, align 8, !tbaa !24
  store ptr %2, ptr %6, align 8, !tbaa !45
  %7 = load ptr, ptr %4, align 8, !tbaa !9
  %8 = load ptr, ptr %5, align 8, !tbaa !24
  %9 = load ptr, ptr %6, align 8, !tbaa !45
  %10 = call i32 @uv__pipe_getsockpeername(ptr noundef %7, ptr noundef @getpeername, ptr noundef %8, ptr noundef %9)
  ret i32 %10
}